target datalayout = "e-m:e-p270:32:32-p271:32:32-p272:64:64-i64:64-i128:128-f80:128-n8:16:32:64-S128"
target triple = "x86_64-pc-linux-gnu"

@_ZN4llvm29ProfileSummaryInfoWrapperPass2IDE = external global i8, align 1
@_ZN4llvm16TargetPassConfig2IDE = external global i8, align 1
@_ZN4llvm30TargetTransformInfoWrapperPass2IDE = external global i8, align 1
@_ZN4llvm19LoopInfoWrapperPass2IDE = external global i8, align 1
@_ZN4llvm29BlockFrequencyInfoWrapperPass2IDE = external global i8, align 1
@_ZN4llvm36OptimizationRemarkEmitterWrapperPass2IDE = external global i8, align 1

; Function Attrs: mustprogress nounwind uwtable
define linkonce_odr hidden noundef nonnull align 8 dereferenceable(161) ptr @_ZN4llvm13AnalysisUsage11addRequiredINS_36OptimizationRemarkEmitterWrapperPassEEERS0_v(ptr noundef nonnull align 8 dereferenceable(161) %0) #1 comdat align 2 {
  %2 = alloca ptr, align 8
  store ptr %0, ptr %2, align 8
  %3 = load ptr, ptr %2, align 8
  %4 = call noundef nonnull align 8 dereferenceable(161) ptr @_ZN4llvm13AnalysisUsage13addRequiredIDERc(ptr noundef nonnull align 8 dereferenceable(161) %3, ptr noundef nonnull align 1 dereferenceable(1) @_ZN4llvm36OptimizationRemarkEmitterWrapperPass2IDE)
  ret ptr %4
}

; Function Attrs: mustprogress nounwind uwtable
define linkonce_odr hidden noundef nonnull align 8 dereferenceable(161) ptr @_ZN4llvm13AnalysisUsage11addRequiredINS_29BlockFrequencyInfoWrapperPassEEERS0_v(ptr noundef nonnull align 8 dereferenceable(161) %0) #1 comdat align 2 {
  %2 = alloca ptr, align 8
  store ptr %0, ptr %2, align 8
  %3 = load ptr, ptr %2, align 8
  %4 = call noundef nonnull align 8 dereferenceable(161) ptr @_ZN4llvm13AnalysisUsage13addRequiredIDERc(ptr noundef nonnull align 8 dereferenceable(161) %3, ptr noundef nonnull align 1 dereferenceable(1) @_ZN4llvm29BlockFrequencyInfoWrapperPass2IDE)
  ret ptr %4
}

; Function Attrs: mustprogress nounwind uwtable
define linkonce_odr hidden noundef nonnull align 8 dereferenceable(161) ptr @_ZN4llvm13AnalysisUsage11addRequiredINS_19LoopInfoWrapperPassEEERS0_v(ptr noundef nonnull align 8 dereferenceable(161) %0) #1 comdat align 2 {
  %2 = alloca ptr, align 8
  store ptr %0, ptr %2, align 8
  %3 = load ptr, ptr %2, align 8
  %4 = call noundef nonnull align 8 dereferenceable(161) ptr @_ZN4llvm13AnalysisUsage13addRequiredIDERc(ptr noundef nonnull align 8 dereferenceable(161) %3, ptr noundef nonnull align 1 dereferenceable(1) @_ZN4llvm19LoopInfoWrapperPass2IDE)
  ret ptr %4
}

; Function Attrs: mustprogress nounwind uwtable
define linkonce_odr hidden noundef nonnull align 8 dereferenceable(161) ptr @_ZN4llvm13AnalysisUsage11addRequiredINS_30TargetTransformInfoWrapperPassEEERS0_v(ptr noundef nonnull align 8 dereferenceable(161) %0) #1 comdat align 2 {
  %2 = alloca ptr, align 8
  store ptr %0, ptr %2, align 8
  %3 = load ptr, ptr %2, align 8
  %4 = call noundef nonnull align 8 dereferenceable(161) ptr @_ZN4llvm13AnalysisUsage13addRequiredIDERc(ptr noundef nonnull align 8 dereferenceable(161) %3, ptr noundef nonnull align 1 dereferenceable(1) @_ZN4llvm30TargetTransformInfoWrapperPass2IDE)
  ret ptr %4
}

; Function Attrs: mustprogress nounwind uwtable
define linkonce_odr hidden noundef nonnull align 8 dereferenceable(161) ptr @_ZN4llvm13AnalysisUsage11addRequiredINS_16TargetPassConfigEEERS0_v(ptr noundef nonnull align 8 dereferenceable(161) %0) #1 comdat align 2 {
  %2 = alloca ptr, align 8
  store ptr %0, ptr %2, align 8
  %3 = load ptr, ptr %2, align 8
  %4 = call noundef nonnull align 8 dereferenceable(161) ptr @_ZN4llvm13AnalysisUsage13addRequiredIDERc(ptr noundef nonnull align 8 dereferenceable(161) %3, ptr noundef nonnull align 1 dereferenceable(1) @_ZN4llvm16TargetPassConfig2IDE)
  ret ptr %4
}

; Function Attrs: mustprogress nounwind uwtable
define linkonce_odr hidden noundef nonnull align 8 dereferenceable(161) ptr @_ZN4llvm13AnalysisUsage11addRequiredINS_29ProfileSummaryInfoWrapperPassEEERS0_v(ptr noundef nonnull align 8 dereferenceable(161) %0) #1 comdat align 2 {
  %2 = alloca ptr, align 8
  store ptr %0, ptr %2, align 8
  %3 = load ptr, ptr %2, align 8
  %4 = call noundef nonnull align 8 dereferenceable(161) ptr @_ZN4llvm13AnalysisUsage13addRequiredIDERc(ptr noundef nonnull align 8 dereferenceable(161) %3, ptr noundef nonnull align 1 dereferenceable(1) @_ZN4llvm29ProfileSummaryInfoWrapperPass2IDE)
  ret ptr %4
}

; Function Attrs: mustprogress nounwind uwtable
define internal void @_ZNK12_GLOBAL__N_114SelectOptimize16getAnalysisUsageERN4llvm13AnalysisUsageE(ptr noundef nonnull align 8 dereferenceable(376) %0, ptr noundef nonnull align 8 dereferenceable(161) %1) unnamed_addr #1 align 2 {
  %3 = alloca ptr, align 8
  %4 = alloca ptr, align 8
  store ptr %0, ptr %3, align 8
  store ptr %1, ptr %4, align 8
  %5 = load ptr, ptr %4, align 8
  %6 = call noundef nonnull align 8 dereferenceable(161) ptr @_ZN4llvm13AnalysisUsage11addRequiredINS_29ProfileSummaryInfoWrapperPassEEERS0_v(ptr noundef nonnull align 8 dereferenceable(161) %5)
  %7 = load ptr, ptr %4, align 8
  %8 = call noundef nonnull align 8 dereferenceable(161) ptr @_ZN4llvm13AnalysisUsage11addRequiredINS_16TargetPassConfigEEERS0_v(ptr noundef nonnull align 8 dereferenceable(161) %7)
  %9 = load ptr, ptr %4, align 8
  %10 = call noundef nonnull align 8 dereferenceable(161) ptr @_ZN4llvm13AnalysisUsage11addRequiredINS_30TargetTransformInfoWrapperPassEEERS0_v(ptr noundef nonnull align 8 dereferenceable(161) %9)
  %11 = load ptr, ptr %4, align 8
  %12 = call noundef nonnull align 8 dereferenceable(161) ptr @_ZN4llvm13AnalysisUsage11addRequiredINS_19LoopInfoWrapperPassEEERS0_v(ptr noundef nonnull align 8 dereferenceable(161) %11)
  %13 = load ptr, ptr %4, align 8
  %14 = call noundef nonnull align 8 dereferenceable(161) ptr @_ZN4llvm13AnalysisUsage11addRequiredINS_29BlockFrequencyInfoWrapperPassEEERS0_v(ptr noundef nonnull align 8 dereferenceable(161) %13)
  %15 = load ptr, ptr %4, align 8
  %16 = call noundef nonnull align 8 dereferenceable(161) ptr @_ZN4llvm13AnalysisUsage11addRequiredINS_36OptimizationRemarkEmitterWrapperPassEEERS0_v(ptr noundef nonnull align 8 dereferenceable(161) %15)
  ret void
}