; Function Attrs: mustprogress nounwind uwtable
define internal void @_ZNK12_GLOBAL__N_114SelectOptimize16getAnalysisUsageERN4llvm13AnalysisUsageE(ptr nocapture nonnull readnone align 8 %0, ptr noundef nonnull align 8 dereferenceable(161) %1) unnamed_addr #0 align 2 {
  %3 = tail call noundef nonnull align 8 dereferenceable(161) ptr @_ZN4llvm13AnalysisUsage13addRequiredIDERc(ptr noundef nonnull align 8 dereferenceable(161) %1, ptr noundef nonnull align 1 dereferenceable(1) @_ZN4llvm29ProfileSummaryInfoWrapperPass2IDE) #17
  %4 = tail call noundef nonnull align 8 dereferenceable(161) ptr @_ZN4llvm13AnalysisUsage13addRequiredIDERc(ptr noundef nonnull align 8 dereferenceable(161) %1, ptr noundef nonnull align 1 dereferenceable(1) @_ZN4llvm16TargetPassConfig2IDE) #17
  %5 = tail call noundef nonnull align 8 dereferenceable(161) ptr @_ZN4llvm13AnalysisUsage13addRequiredIDERc(ptr noundef nonnull align 8 dereferenceable(161) %1, ptr noundef nonnull align 1 dereferenceable(1) @_ZN4llvm30TargetTransformInfoWrapperPass2IDE) #17
  %6 = tail call noundef nonnull align 8 dereferenceable(161) ptr @_ZN4llvm13AnalysisUsage13addRequiredIDERc(ptr noundef nonnull align 8 dereferenceable(161) %1, ptr noundef nonnull align 1 dereferenceable(1) @_ZN4llvm19LoopInfoWrapperPass2IDE) #17
  %7 = tail call noundef nonnull align 8 dereferenceable(161) ptr @_ZN4llvm13AnalysisUsage13addRequiredIDERc(ptr noundef nonnull align 8 dereferenceable(161) %1, ptr noundef nonnull align 1 dereferenceable(1) @_ZN4llvm29BlockFrequencyInfoWrapperPass2IDE) #17
  %8 = tail call noundef nonnull align 8 dereferenceable(161) ptr @_ZN4llvm13AnalysisUsage13addRequiredIDERc(ptr noundef nonnull align 8 dereferenceable(161) %1, ptr noundef nonnull align 1 dereferenceable(1) @_ZN4llvm36OptimizationRemarkEmitterWrapperPass2IDE) #17
  ret void
}